target datalayout = "e-m:e-p270:32:32-p271:32:32-p272:64:64-i64:64-i128:128-f80:128-n8:16:32:64-S128"
target triple = "x86_64-pc-linux-gnu"

%struct.pmix_object_t = type { %union.pthread_mutex_t, ptr, i32, %struct.pmix_tma }
%struct.pmix_tma = type { ptr, ptr, ptr, ptr, ptr, ptr, ptr, ptr }
%union.pthread_mutex_t = type { %struct.__pthread_mutex_s }
%struct.__pthread_mutex_s = type { i32, i32, i32, i32, i32, i16, i16, %struct.__pthread_internal_list }
%struct.__pthread_internal_list = type { ptr, ptr }
%struct.pmix_proc = type { [256 x i8], i32 }
%struct.pmix_value = type { i16, %union.anon }
%union.anon = type { %struct.pmix_envar_t }
%struct.pmix_envar_t = type { ptr, ptr, i8 }
%struct.timeval = type { i64, i64 }
%struct.pmix_list_item_t = type { %struct.pmix_object_t, ptr, ptr, i32 }
%struct.event = type { %struct.event_callback, %union.anon.2, i32, ptr, %union.anon.4, i16, i16, %struct.timeval }
%struct.event_callback = type { %struct.anon.0, i16, i8, i8, %union.anon.1, ptr }
%struct.anon.0 = type { ptr, ptr }
%union.anon.1 = type { ptr }
%union.anon.2 = type { %struct.anon.3 }
%struct.anon.3 = type { ptr, ptr }
%union.anon.4 = type { %struct.anon.5 }
%struct.anon.5 = type { %struct.anon.6, %struct.timeval }
%struct.anon.6 = type { ptr, ptr }
%struct.pmix_info = type { [512 x i8], i32, %struct.pmix_value }
%struct.pmix_event_chain_t = type { %struct.pmix_list_item_t, i32, %struct.event, i8, i8, i8, i8, %struct.pmix_proc, i8, ptr, i64, ptr, i64, ptr, i64, i64, i32, ptr, i64, ptr, i64, ptr, ptr, ptr, ptr, ptr }
%struct.pmix_data_array = type { i16, i64, ptr }

@.str.2 = private unnamed_addr constant [37 x i8] c"PMIX ERROR: %s in file %s at line %d\00", align 1
@.str.3 = private unnamed_addr constant [32 x i8] c"event/pmix_event_notification.c\00", align 1
@.str.22 = private unnamed_addr constant [14 x i8] c"pmix.evnondef\00", align 1
@.str.23 = private unnamed_addr constant [13 x i8] c"pmix.evrange\00", align 1
@.str.24 = private unnamed_addr constant [12 x i8] c"pmix.evproc\00", align 1
@.str.25 = private unnamed_addr constant [16 x i8] c"pmix.evaffected\00", align 1

; Function Attrs: nounwind uwtable
define i32 @pmix_prep_event_chain(ptr noundef %0, ptr noundef %1, i64 noundef %2, i1 noundef zeroext %3) #0 {
  %5 = alloca i32, align 4
  %6 = alloca ptr, align 8
  %7 = alloca ptr, align 8
  %8 = alloca i64, align 8
  %9 = alloca i8, align 1
  %10 = alloca i64, align 8
  %11 = alloca i32, align 4
  store ptr %0, ptr %6, align 8, !tbaa !86
  store ptr %1, ptr %7, align 8, !tbaa !11
  store i64 %2, ptr %8, align 8, !tbaa !13
  %12 = zext i1 %3 to i8
  store i8 %12, ptr %9, align 1, !tbaa !85
  call void @llvm.lifetime.start.p0(i64 8, ptr %10) #13
  %13 = load ptr, ptr %7, align 8, !tbaa !11
  %14 = icmp ne ptr null, %13
  br i1 %14, label %15, label %253

15:                                               ; preds = %4
  %16 = load i64, ptr %8, align 8, !tbaa !13
  %17 = icmp ult i64 0, %16
  br i1 %17, label %18, label %253

18:                                               ; preds = %15
  %19 = load i64, ptr %8, align 8, !tbaa !13
  %20 = load ptr, ptr %6, align 8, !tbaa !86
  %21 = getelementptr inbounds nuw %struct.pmix_event_chain_t, ptr %20, i32 0, i32 14
  store i64 %19, ptr %21, align 8, !tbaa !112
  %22 = load ptr, ptr %6, align 8, !tbaa !86
  %23 = getelementptr inbounds nuw %struct.pmix_event_chain_t, ptr %22, i32 0, i32 13
  %24 = load ptr, ptr %23, align 8, !tbaa !110
  %25 = icmp eq ptr null, %24
  br i1 %25, label %26, label %33

26:                                               ; preds = %18
  %27 = load ptr, ptr %6, align 8, !tbaa !86
  %28 = getelementptr inbounds nuw %struct.pmix_event_chain_t, ptr %27, i32 0, i32 14
  %29 = load i64, ptr %28, align 8, !tbaa !112
  %30 = call ptr @PMIx_Info_create(i64 noundef %29)
  %31 = load ptr, ptr %6, align 8, !tbaa !86
  %32 = getelementptr inbounds nuw %struct.pmix_event_chain_t, ptr %31, i32 0, i32 13
  store ptr %30, ptr %32, align 8, !tbaa !110
  br label %33

33:                                               ; preds = %26, %18
  store i64 0, ptr %10, align 8, !tbaa !13
  br label %34

34:                                               ; preds = %249, %33
  %35 = load i64, ptr %10, align 8, !tbaa !13
  %36 = load i64, ptr %8, align 8, !tbaa !13
  %37 = icmp ult i64 %35, %36
  br i1 %37, label %38, label %252

38:                                               ; preds = %34
  %39 = load i8, ptr %9, align 1, !tbaa !85, !range !23, !noundef !24
  %40 = trunc i8 %39 to i1
  br i1 %40, label %41, label %51

41:                                               ; preds = %38
  %42 = load ptr, ptr %6, align 8, !tbaa !86
  %43 = getelementptr inbounds nuw %struct.pmix_event_chain_t, ptr %42, i32 0, i32 13
  %44 = load ptr, ptr %43, align 8, !tbaa !110
  %45 = load i64, ptr %10, align 8, !tbaa !13
  %46 = getelementptr inbounds nuw %struct.pmix_info, ptr %44, i64 %45
  %47 = load ptr, ptr %7, align 8, !tbaa !11
  %48 = load i64, ptr %10, align 8, !tbaa !13
  %49 = getelementptr inbounds nuw %struct.pmix_info, ptr %47, i64 %48
  %50 = call i32 @PMIx_Info_xfer(ptr noundef %46, ptr noundef %49)
  br label %51

51:                                               ; preds = %41, %38
  %52 = load ptr, ptr %7, align 8, !tbaa !11
  %53 = load i64, ptr %10, align 8, !tbaa !13
  %54 = getelementptr inbounds nuw %struct.pmix_info, ptr %52, i64 %53
  %55 = getelementptr inbounds nuw %struct.pmix_info, ptr %54, i32 0, i32 0
  %56 = getelementptr inbounds [512 x i8], ptr %55, i64 0, i64 0
  %57 = call i32 @strncmp(ptr noundef %56, ptr noundef @.str.22, i64 noundef 511) #16
  %58 = icmp eq i32 0, %57
  br i1 %58, label %59, label %70

59:                                               ; preds = %51
  %60 = load ptr, ptr %7, align 8, !tbaa !11
  %61 = load i64, ptr %10, align 8, !tbaa !13
  %62 = getelementptr inbounds nuw %struct.pmix_info, ptr %60, i64 %61
  %63 = call i32 @PMIx_Info_true(ptr noundef %62)
  %64 = icmp eq i32 0, %63
  %65 = select i1 %64, i32 1, i32 0
  %66 = icmp ne i32 %65, 0
  %67 = load ptr, ptr %6, align 8, !tbaa !86
  %68 = getelementptr inbounds nuw %struct.pmix_event_chain_t, ptr %67, i32 0, i32 4
  %69 = zext i1 %66 to i8
  store i8 %69, ptr %68, align 1, !tbaa !113
  br label %248

70:                                               ; preds = %51
  %71 = load ptr, ptr %7, align 8, !tbaa !11
  %72 = load i64, ptr %10, align 8, !tbaa !13
  %73 = getelementptr inbounds nuw %struct.pmix_info, ptr %71, i64 %72
  %74 = getelementptr inbounds nuw %struct.pmix_info, ptr %73, i32 0, i32 0
  %75 = getelementptr inbounds [512 x i8], ptr %74, i64 0, i64 0
  %76 = call zeroext i1 @PMIx_Check_key(ptr noundef %75, ptr noundef @.str.23)
  br i1 %76, label %77, label %170

77:                                               ; preds = %70
  %78 = load ptr, ptr %7, align 8, !tbaa !11
  %79 = load i64, ptr %10, align 8, !tbaa !13
  %80 = getelementptr inbounds nuw %struct.pmix_info, ptr %78, i64 %79
  %81 = getelementptr inbounds nuw %struct.pmix_info, ptr %80, i32 0, i32 2
  %82 = getelementptr inbounds nuw %struct.pmix_value, ptr %81, i32 0, i32 0
  %83 = load i16, ptr %82, align 8, !tbaa !170
  %84 = zext i16 %83 to i32
  %85 = icmp eq i32 39, %84
  br i1 %85, label %86, label %136

86:                                               ; preds = %77
  %87 = load ptr, ptr %7, align 8, !tbaa !11
  %88 = load i64, ptr %10, align 8, !tbaa !13
  %89 = getelementptr inbounds nuw %struct.pmix_info, ptr %87, i64 %88
  %90 = getelementptr inbounds nuw %struct.pmix_info, ptr %89, i32 0, i32 2
  %91 = getelementptr inbounds nuw %struct.pmix_value, ptr %90, i32 0, i32 1
  %92 = load ptr, ptr %91, align 8, !tbaa !10
  %93 = icmp ne ptr null, %92
  br i1 %93, label %94, label %136

94:                                               ; preds = %86
  %95 = load ptr, ptr %7, align 8, !tbaa !11
  %96 = load i64, ptr %10, align 8, !tbaa !13
  %97 = getelementptr inbounds nuw %struct.pmix_info, ptr %95, i64 %96
  %98 = getelementptr inbounds nuw %struct.pmix_info, ptr %97, i32 0, i32 2
  %99 = getelementptr inbounds nuw %struct.pmix_value, ptr %98, i32 0, i32 1
  %100 = load ptr, ptr %99, align 8, !tbaa !10
  %101 = getelementptr inbounds nuw %struct.pmix_data_array, ptr %100, i32 0, i32 2
  %102 = load ptr, ptr %101, align 8, !tbaa !172
  %103 = icmp ne ptr null, %102
  br i1 %103, label %104, label %136

104:                                              ; preds = %94
  %105 = load ptr, ptr %7, align 8, !tbaa !11
  %106 = load i64, ptr %10, align 8, !tbaa !13
  %107 = getelementptr inbounds nuw %struct.pmix_info, ptr %105, i64 %106
  %108 = getelementptr inbounds nuw %struct.pmix_info, ptr %107, i32 0, i32 2
  %109 = getelementptr inbounds nuw %struct.pmix_value, ptr %108, i32 0, i32 1
  %110 = load ptr, ptr %109, align 8, !tbaa !10
  %111 = getelementptr inbounds nuw %struct.pmix_data_array, ptr %110, i32 0, i32 1
  %112 = load i64, ptr %111, align 8, !tbaa !174
  %113 = load ptr, ptr %6, align 8, !tbaa !86
  %114 = getelementptr inbounds nuw %struct.pmix_event_chain_t, ptr %113, i32 0, i32 10
  store i64 %112, ptr %114, align 8, !tbaa !117
  %115 = load ptr, ptr %6, align 8, !tbaa !86
  %116 = getelementptr inbounds nuw %struct.pmix_event_chain_t, ptr %115, i32 0, i32 10
  %117 = load i64, ptr %116, align 8, !tbaa !117
  %118 = call ptr @PMIx_Proc_create(i64 noundef %117)
  %119 = load ptr, ptr %6, align 8, !tbaa !86
  %120 = getelementptr inbounds nuw %struct.pmix_event_chain_t, ptr %119, i32 0, i32 9
  store ptr %118, ptr %120, align 8, !tbaa !116
  %121 = load ptr, ptr %6, align 8, !tbaa !86
  %122 = getelementptr inbounds nuw %struct.pmix_event_chain_t, ptr %121, i32 0, i32 9
  %123 = load ptr, ptr %122, align 8, !tbaa !116
  %124 = load ptr, ptr %7, align 8, !tbaa !11
  %125 = load i64, ptr %10, align 8, !tbaa !13
  %126 = getelementptr inbounds nuw %struct.pmix_info, ptr %124, i64 %125
  %127 = getelementptr inbounds nuw %struct.pmix_info, ptr %126, i32 0, i32 2
  %128 = getelementptr inbounds nuw %struct.pmix_value, ptr %127, i32 0, i32 1
  %129 = load ptr, ptr %128, align 8, !tbaa !10
  %130 = getelementptr inbounds nuw %struct.pmix_data_array, ptr %129, i32 0, i32 2
  %131 = load ptr, ptr %130, align 8, !tbaa !172
  %132 = load ptr, ptr %6, align 8, !tbaa !86
  %133 = getelementptr inbounds nuw %struct.pmix_event_chain_t, ptr %132, i32 0, i32 10
  %134 = load i64, ptr %133, align 8, !tbaa !117
  %135 = mul i64 %134, 260
  call void @llvm.memcpy.p0.p0.i64(ptr align 4 %123, ptr align 1 %131, i64 %135, i1 false)
  br label %169

136:                                              ; preds = %94, %86, %77
  %137 = load ptr, ptr %7, align 8, !tbaa !11
  %138 = load i64, ptr %10, align 8, !tbaa !13
  %139 = getelementptr inbounds nuw %struct.pmix_info, ptr %137, i64 %138
  %140 = getelementptr inbounds nuw %struct.pmix_info, ptr %139, i32 0, i32 2
  %141 = getelementptr inbounds nuw %struct.pmix_value, ptr %140, i32 0, i32 0
  %142 = load i16, ptr %141, align 8, !tbaa !170
  %143 = zext i16 %142 to i32
  %144 = icmp eq i32 22, %143
  br i1 %144, label %145, label %163

145:                                              ; preds = %136
  %146 = load ptr, ptr %6, align 8, !tbaa !86
  %147 = getelementptr inbounds nuw %struct.pmix_event_chain_t, ptr %146, i32 0, i32 10
  store i64 1, ptr %147, align 8, !tbaa !117
  %148 = load ptr, ptr %6, align 8, !tbaa !86
  %149 = getelementptr inbounds nuw %struct.pmix_event_chain_t, ptr %148, i32 0, i32 10
  %150 = load i64, ptr %149, align 8, !tbaa !117
  %151 = call ptr @PMIx_Proc_create(i64 noundef %150)
  %152 = load ptr, ptr %6, align 8, !tbaa !86
  %153 = getelementptr inbounds nuw %struct.pmix_event_chain_t, ptr %152, i32 0, i32 9
  store ptr %151, ptr %153, align 8, !tbaa !116
  %154 = load ptr, ptr %6, align 8, !tbaa !86
  %155 = getelementptr inbounds nuw %struct.pmix_event_chain_t, ptr %154, i32 0, i32 9
  %156 = load ptr, ptr %155, align 8, !tbaa !116
  %157 = load ptr, ptr %7, align 8, !tbaa !11
  %158 = load i64, ptr %10, align 8, !tbaa !13
  %159 = getelementptr inbounds nuw %struct.pmix_info, ptr %157, i64 %158
  %160 = getelementptr inbounds nuw %struct.pmix_info, ptr %159, i32 0, i32 2
  %161 = getelementptr inbounds nuw %struct.pmix_value, ptr %160, i32 0, i32 1
  %162 = load ptr, ptr %161, align 8, !tbaa !10
  call void @llvm.memcpy.p0.p0.i64(ptr align 4 %156, ptr align 4 %162, i64 260, i1 false)
  br label %168

163:                                              ; preds = %136
  br label %164

164:                                              ; preds = %163
  %165 = call ptr @PMIx_Error_string(i32 noundef -27)
  call void (i32, ptr, ...) @pmix_output(i32 noundef 0, ptr noundef @.str.2, ptr noundef %165, ptr noundef @.str.3, i32 noundef 1396)
  br label %166

166:                                              ; preds = %164
  br label %167

167:                                              ; preds = %166
  store i32 -27, ptr %5, align 4
  store i32 1, ptr %11, align 4
  br label %254

168:                                              ; preds = %145
  br label %169

169:                                              ; preds = %168, %104
  br label %247

170:                                              ; preds = %70
  %171 = load ptr, ptr %7, align 8, !tbaa !11
  %172 = load i64, ptr %10, align 8, !tbaa !13
  %173 = getelementptr inbounds nuw %struct.pmix_info, ptr %171, i64 %172
  %174 = getelementptr inbounds nuw %struct.pmix_info, ptr %173, i32 0, i32 0
  %175 = getelementptr inbounds [512 x i8], ptr %174, i64 0, i64 0
  %176 = call zeroext i1 @PMIx_Check_key(ptr noundef %175, ptr noundef @.str.24)
  br i1 %176, label %177, label %198

177:                                              ; preds = %170
  %178 = call ptr @PMIx_Proc_create(i64 noundef 1)
  %179 = load ptr, ptr %6, align 8, !tbaa !86
  %180 = getelementptr inbounds nuw %struct.pmix_event_chain_t, ptr %179, i32 0, i32 11
  store ptr %178, ptr %180, align 8, !tbaa !120
  %181 = load ptr, ptr %6, align 8, !tbaa !86
  %182 = getelementptr inbounds nuw %struct.pmix_event_chain_t, ptr %181, i32 0, i32 11
  %183 = load ptr, ptr %182, align 8, !tbaa !120
  %184 = icmp eq ptr null, %183
  br i1 %184, label %185, label %186

185:                                              ; preds = %177
  store i32 -32, ptr %5, align 4
  store i32 1, ptr %11, align 4
  br label %254

186:                                              ; preds = %177
  %187 = load ptr, ptr %6, align 8, !tbaa !86
  %188 = getelementptr inbounds nuw %struct.pmix_event_chain_t, ptr %187, i32 0, i32 12
  store i64 1, ptr %188, align 8, !tbaa !121
  %189 = load ptr, ptr %6, align 8, !tbaa !86
  %190 = getelementptr inbounds nuw %struct.pmix_event_chain_t, ptr %189, i32 0, i32 11
  %191 = load ptr, ptr %190, align 8, !tbaa !120
  %192 = load ptr, ptr %7, align 8, !tbaa !11
  %193 = load i64, ptr %10, align 8, !tbaa !13
  %194 = getelementptr inbounds nuw %struct.pmix_info, ptr %192, i64 %193
  %195 = getelementptr inbounds nuw %struct.pmix_info, ptr %194, i32 0, i32 2
  %196 = getelementptr inbounds nuw %struct.pmix_value, ptr %195, i32 0, i32 1
  %197 = load ptr, ptr %196, align 8, !tbaa !10
  call void @llvm.memcpy.p0.p0.i64(ptr align 4 %191, ptr align 4 %197, i64 260, i1 false)
  br label %246

198:                                              ; preds = %170
  %199 = load ptr, ptr %7, align 8, !tbaa !11
  %200 = load i64, ptr %10, align 8, !tbaa !13
  %201 = getelementptr inbounds nuw %struct.pmix_info, ptr %199, i64 %200
  %202 = getelementptr inbounds nuw %struct.pmix_info, ptr %201, i32 0, i32 0
  %203 = getelementptr inbounds [512 x i8], ptr %202, i64 0, i64 0
  %204 = call zeroext i1 @PMIx_Check_key(ptr noundef %203, ptr noundef @.str.25)
  br i1 %204, label %205, label %245

205:                                              ; preds = %198
  %206 = load ptr, ptr %7, align 8, !tbaa !11
  %207 = load i64, ptr %10, align 8, !tbaa !13
  %208 = getelementptr inbounds nuw %struct.pmix_info, ptr %206, i64 %207
  %209 = getelementptr inbounds nuw %struct.pmix_info, ptr %208, i32 0, i32 2
  %210 = getelementptr inbounds nuw %struct.pmix_value, ptr %209, i32 0, i32 1
  %211 = load ptr, ptr %210, align 8, !tbaa !10
  %212 = getelementptr inbounds nuw %struct.pmix_data_array, ptr %211, i32 0, i32 1
  %213 = load i64, ptr %212, align 8, !tbaa !174
  %214 = load ptr, ptr %6, align 8, !tbaa !86
  %215 = getelementptr inbounds nuw %struct.pmix_event_chain_t, ptr %214, i32 0, i32 12
  store i64 %213, ptr %215, align 8, !tbaa !121
  %216 = load ptr, ptr %6, align 8, !tbaa !86
  %217 = getelementptr inbounds nuw %struct.pmix_event_chain_t, ptr %216, i32 0, i32 12
  %218 = load i64, ptr %217, align 8, !tbaa !121
  %219 = call ptr @PMIx_Proc_create(i64 noundef %218)
  %220 = load ptr, ptr %6, align 8, !tbaa !86
  %221 = getelementptr inbounds nuw %struct.pmix_event_chain_t, ptr %220, i32 0, i32 11
  store ptr %219, ptr %221, align 8, !tbaa !120
  %222 = load ptr, ptr %6, align 8, !tbaa !86
  %223 = getelementptr inbounds nuw %struct.pmix_event_chain_t, ptr %222, i32 0, i32 11
  %224 = load ptr, ptr %223, align 8, !tbaa !120
  %225 = icmp eq ptr null, %224
  br i1 %225, label %226, label %229

226:                                              ; preds = %205
  %227 = load ptr, ptr %6, align 8, !tbaa !86
  %228 = getelementptr inbounds nuw %struct.pmix_event_chain_t, ptr %227, i32 0, i32 12
  store i64 0, ptr %228, align 8, !tbaa !121
  store i32 -32, ptr %5, align 4
  store i32 1, ptr %11, align 4
  br label %254

229:                                              ; preds = %205
  %230 = load ptr, ptr %6, align 8, !tbaa !86
  %231 = getelementptr inbounds nuw %struct.pmix_event_chain_t, ptr %230, i32 0, i32 11
  %232 = load ptr, ptr %231, align 8, !tbaa !120
  %233 = load ptr, ptr %7, align 8, !tbaa !11
  %234 = load i64, ptr %10, align 8, !tbaa !13
  %235 = getelementptr inbounds nuw %struct.pmix_info, ptr %233, i64 %234
  %236 = getelementptr inbounds nuw %struct.pmix_info, ptr %235, i32 0, i32 2
  %237 = getelementptr inbounds nuw %struct.pmix_value, ptr %236, i32 0, i32 1
  %238 = load ptr, ptr %237, align 8, !tbaa !10
  %239 = getelementptr inbounds nuw %struct.pmix_data_array, ptr %238, i32 0, i32 2
  %240 = load ptr, ptr %239, align 8, !tbaa !172
  %241 = load ptr, ptr %6, align 8, !tbaa !86
  %242 = getelementptr inbounds nuw %struct.pmix_event_chain_t, ptr %241, i32 0, i32 12
  %243 = load i64, ptr %242, align 8, !tbaa !121
  %244 = mul i64 %243, 260
  call void @llvm.memcpy.p0.p0.i64(ptr align 4 %232, ptr align 1 %240, i64 %244, i1 false)
  br label %245

245:                                              ; preds = %229, %198
  br label %246

246:                                              ; preds = %245, %186
  br label %247

247:                                              ; preds = %246, %169
  br label %248

248:                                              ; preds = %247, %59
  br label %249

249:                                              ; preds = %248
  %250 = load i64, ptr %10, align 8, !tbaa !13
  %251 = add i64 %250, 1
  store i64 %251, ptr %10, align 8, !tbaa !13
  br label %34, !llvm.loop !175

252:                                              ; preds = %34
  br label %253

253:                                              ; preds = %252, %15, %4
  store i32 0, ptr %5, align 4
  store i32 1, ptr %11, align 4
  br label %254

254:                                              ; preds = %253, %226, %185, %167
  call void @llvm.lifetime.end.p0(i64 8, ptr %10) #13
  %255 = load i32, ptr %5, align 4
  ret i32 %255
}