; Function Attrs: nounwind uwtable
define range(i32 -32, 1) i32 @pmix_prep_event_chain(ptr noundef captures(none) %0, ptr noundef %1, i64 noundef %2, i1 noundef zeroext %3) local_unnamed_addr #0 {
  %5 = icmp ne ptr %1, null
  %6 = icmp ne i64 %2, 0
  %or.cond = and i1 %5, %6
  br i1 %or.cond, label %7, label %.loopexit

7:                                                ; preds = %4
  %8 = getelementptr inbounds nuw i8, ptr %0, i64 592
  store i64 %2, ptr %8, align 8, !tbaa !112
  %9 = getelementptr inbounds nuw i8, ptr %0, i64 584
  %10 = load ptr, ptr %9, align 8, !tbaa !110
  %11 = icmp eq ptr %10, null
  br i1 %11, label %12, label %14

12:                                               ; preds = %7
  %13 = tail call ptr @PMIx_Info_create(i64 noundef %2) #15
  store ptr %13, ptr %9, align 8, !tbaa !110
  br label %14

14:                                               ; preds = %12, %7
  %15 = getelementptr inbounds nuw i8, ptr %0, i64 576
  %16 = getelementptr inbounds nuw i8, ptr %0, i64 568
  %17 = getelementptr inbounds nuw i8, ptr %0, i64 560
  %18 = getelementptr inbounds nuw i8, ptr %0, i64 552
  %19 = getelementptr inbounds nuw i8, ptr %0, i64 281
  br label %20

20:                                               ; preds = %14, %83
  %.073 = phi i64 [ 0, %14 ], [ %84, %83 ]
  br i1 %3, label %21, label %26

21:                                               ; preds = %20
  %22 = load ptr, ptr %9, align 8, !tbaa !110
  %23 = getelementptr inbounds nuw %struct.pmix_info, ptr %22, i64 %.073
  %24 = getelementptr inbounds nuw %struct.pmix_info, ptr %1, i64 %.073
  %25 = tail call i32 @PMIx_Info_xfer(ptr noundef %23, ptr noundef nonnull %24) #15
  br label %26

26:                                               ; preds = %21, %20
  %27 = getelementptr inbounds nuw %struct.pmix_info, ptr %1, i64 %.073
  %28 = tail call i32 @strncmp(ptr noundef nonnull dereferenceable(1) %27, ptr noundef nonnull dereferenceable(14) @.str.22, i64 noundef 511) #20
  %29 = icmp eq i32 %28, 0
  br i1 %29, label %30, label %34

30:                                               ; preds = %26
  %31 = tail call i32 @PMIx_Info_true(ptr noundef nonnull %27) #15
  %32 = icmp eq i32 %31, 0
  %33 = zext i1 %32 to i8
  store i8 %33, ptr %19, align 1, !tbaa !113
  br label %83

34:                                               ; preds = %26
  %35 = tail call zeroext i1 @PMIx_Check_key(ptr noundef nonnull %27, ptr noundef nonnull @.str.23) #15
  br i1 %35, label %36, label %59

36:                                               ; preds = %34
  %37 = getelementptr inbounds nuw i8, ptr %27, i64 520
  %38 = load i16, ptr %37, align 8, !tbaa !149
  switch i16 %38, label %.thread [
    i16 39, label %39
    i16 22, label %54
  ]

39:                                               ; preds = %36
  %40 = getelementptr inbounds nuw i8, ptr %27, i64 528
  %41 = load ptr, ptr %40, align 8, !tbaa !85
  %.not = icmp eq ptr %41, null
  br i1 %.not, label %.thread, label %42

42:                                               ; preds = %39
  %43 = getelementptr inbounds nuw i8, ptr %41, i64 16
  %44 = load ptr, ptr %43, align 8, !tbaa !151
  %.not72 = icmp eq ptr %44, null
  br i1 %.not72, label %.thread, label %45

45:                                               ; preds = %42
  %46 = getelementptr inbounds nuw i8, ptr %41, i64 8
  %47 = load i64, ptr %46, align 8, !tbaa !153
  store i64 %47, ptr %17, align 8, !tbaa !117
  %48 = tail call ptr @PMIx_Proc_create(i64 noundef %47) #15
  store ptr %48, ptr %18, align 8, !tbaa !116
  %49 = load ptr, ptr %40, align 8, !tbaa !85
  %50 = getelementptr inbounds nuw i8, ptr %49, i64 16
  %51 = load ptr, ptr %50, align 8, !tbaa !151
  %52 = load i64, ptr %17, align 8, !tbaa !117
  %53 = mul i64 %52, 260
  tail call void @llvm.memcpy.p0.p0.i64(ptr align 4 %48, ptr align 1 %51, i64 %53, i1 false)
  br label %83

54:                                               ; preds = %36
  store i64 1, ptr %17, align 8, !tbaa !117
  %55 = tail call ptr @PMIx_Proc_create(i64 noundef 1) #15
  store ptr %55, ptr %18, align 8, !tbaa !116
  %56 = getelementptr inbounds nuw i8, ptr %27, i64 528
  %57 = load ptr, ptr %56, align 8, !tbaa !85
  tail call void @llvm.memcpy.p0.p0.i64(ptr noundef nonnull align 4 dereferenceable(260) %55, ptr noundef nonnull align 4 dereferenceable(260) %57, i64 260, i1 false)
  br label %83

.thread:                                          ; preds = %36, %39, %42
  %58 = tail call ptr @PMIx_Error_string(i32 noundef -27) #15
  tail call void (i32, ptr, ...) @pmix_output(i32 noundef 0, ptr noundef nonnull @.str.2, ptr noundef %58, ptr noundef nonnull @.str.3, i32 noundef 1396) #15
  br label %.loopexit

59:                                               ; preds = %34
  %60 = tail call zeroext i1 @PMIx_Check_key(ptr noundef nonnull %27, ptr noundef nonnull @.str.24) #15
  br i1 %60, label %61, label %67

61:                                               ; preds = %59
  %62 = tail call ptr @PMIx_Proc_create(i64 noundef 1) #15
  store ptr %62, ptr %16, align 8, !tbaa !120
  %63 = icmp eq ptr %62, null
  br i1 %63, label %.loopexit, label %64

64:                                               ; preds = %61
  store i64 1, ptr %15, align 8, !tbaa !121
  %65 = getelementptr inbounds nuw i8, ptr %27, i64 528
  %66 = load ptr, ptr %65, align 8, !tbaa !85
  tail call void @llvm.memcpy.p0.p0.i64(ptr noundef nonnull align 4 dereferenceable(260) %62, ptr noundef nonnull align 4 dereferenceable(260) %66, i64 260, i1 false)
  br label %83

67:                                               ; preds = %59
  %68 = tail call zeroext i1 @PMIx_Check_key(ptr noundef nonnull %27, ptr noundef nonnull @.str.25) #15
  br i1 %68, label %69, label %83

69:                                               ; preds = %67
  %70 = getelementptr inbounds nuw i8, ptr %27, i64 528
  %71 = load ptr, ptr %70, align 8, !tbaa !85
  %72 = getelementptr inbounds nuw i8, ptr %71, i64 8
  %73 = load i64, ptr %72, align 8, !tbaa !153
  store i64 %73, ptr %15, align 8, !tbaa !121
  %74 = tail call ptr @PMIx_Proc_create(i64 noundef %73) #15
  store ptr %74, ptr %16, align 8, !tbaa !120
  %75 = icmp eq ptr %74, null
  br i1 %75, label %76, label %77

76:                                               ; preds = %69
  store i64 0, ptr %15, align 8, !tbaa !121
  br label %.loopexit

77:                                               ; preds = %69
  %78 = load ptr, ptr %70, align 8, !tbaa !85
  %79 = getelementptr inbounds nuw i8, ptr %78, i64 16
  %80 = load ptr, ptr %79, align 8, !tbaa !151
  %81 = load i64, ptr %15, align 8, !tbaa !121
  %82 = mul i64 %81, 260
  tail call void @llvm.memcpy.p0.p0.i64(ptr nonnull align 4 %74, ptr align 1 %80, i64 %82, i1 false)
  br label %83

83:                                               ; preds = %30, %64, %77, %67, %45, %54
  %84 = add nuw i64 %.073, 1
  %exitcond.not = icmp eq i64 %84, %2
  br i1 %exitcond.not, label %.loopexit, label %20, !llvm.loop !154

.loopexit:                                        ; preds = %83, %61, %4, %76, %.thread
  %.067 = phi i32 [ -27, %.thread ], [ -32, %76 ], [ 0, %4 ], [ 0, %83 ], [ -32, %61 ]
  ret i32 %.067
}